target datalayout = "e-m:e-p270:32:32-p271:32:32-p272:64:64-i64:64-i128:128-f80:128-n8:16:32:64-S128"
target triple = "x86_64-pc-linux-gnu"

%struct.psset_s = type { [64 x %struct.hpdata_age_heap_t], [1 x i64], %struct.psset_bin_stats_s, %struct.psset_stats_s, %struct.hpdata_empty_list_t, [128 x %struct.hpdata_purge_list_t], [2 x i64], %struct.hpdata_hugify_list_t }
%struct.hpdata_age_heap_t = type { %struct.ph_s }
%struct.ph_s = type { ptr, i64 }
%struct.psset_bin_stats_s = type { i64, i64, i64 }
%struct.psset_stats_s = type { [64 x [2 x %struct.psset_bin_stats_s]], [2 x %struct.psset_bin_stats_s], [2 x %struct.psset_bin_stats_s] }
%struct.hpdata_empty_list_t = type { %struct.anon }
%struct.anon = type { ptr }
%struct.hpdata_purge_list_t = type { %struct.anon.0 }
%struct.anon.0 = type { ptr }
%struct.hpdata_hugify_list_t = type { %struct.anon.1 }
%struct.anon.1 = type { ptr }
%struct.hpdata_s = type { ptr, i64, i8, i8, i8, i8, i8, %struct.nstime_t, i8, i8, i8, i8, i8, %union.anon, %struct.anon.3, %struct.anon.4, i64, i64, [8 x i64], i64, [8 x i64] }
%struct.nstime_t = type { i64 }
%union.anon = type { %struct.hpdata_age_heap_link_t }
%struct.hpdata_age_heap_link_t = type { %struct.phn_link_s }
%struct.phn_link_s = type { ptr, ptr, ptr }
%struct.anon.3 = type { ptr, ptr }
%struct.anon.4 = type { ptr, ptr }

; Function Attrs: inlinehint nounwind uwtable
define internal void @hpdata_hugify_list_remove(ptr noundef %0, ptr noundef %1) #3 {
  %3 = alloca ptr, align 8
  %4 = alloca ptr, align 8
  store ptr %0, ptr %3, align 8, !tbaa !18
  store ptr %1, ptr %4, align 8, !tbaa !32
  br label %5

5:                                                ; preds = %2
  %6 = load ptr, ptr %3, align 8, !tbaa !18
  %7 = getelementptr inbounds nuw %struct.hpdata_hugify_list_t, ptr %6, i32 0, i32 0
  %8 = getelementptr inbounds nuw %struct.anon.1, ptr %7, i32 0, i32 0
  %9 = load ptr, ptr %8, align 8, !tbaa !19
  %10 = load ptr, ptr %4, align 8, !tbaa !32
  %11 = icmp eq ptr %9, %10
  br i1 %11, label %12, label %23

12:                                               ; preds = %5
  %13 = load ptr, ptr %3, align 8, !tbaa !18
  %14 = getelementptr inbounds nuw %struct.hpdata_hugify_list_t, ptr %13, i32 0, i32 0
  %15 = getelementptr inbounds nuw %struct.anon.1, ptr %14, i32 0, i32 0
  %16 = load ptr, ptr %15, align 8, !tbaa !19
  %17 = getelementptr inbounds nuw %struct.hpdata_s, ptr %16, i32 0, i32 15
  %18 = getelementptr inbounds nuw %struct.anon.4, ptr %17, i32 0, i32 0
  %19 = load ptr, ptr %18, align 8, !tbaa !45
  %20 = load ptr, ptr %3, align 8, !tbaa !18
  %21 = getelementptr inbounds nuw %struct.hpdata_hugify_list_t, ptr %20, i32 0, i32 0
  %22 = getelementptr inbounds nuw %struct.anon.1, ptr %21, i32 0, i32 0
  store ptr %19, ptr %22, align 8, !tbaa !19
  br label %23

23:                                               ; preds = %12, %5
  %24 = load ptr, ptr %3, align 8, !tbaa !18
  %25 = getelementptr inbounds nuw %struct.hpdata_hugify_list_t, ptr %24, i32 0, i32 0
  %26 = getelementptr inbounds nuw %struct.anon.1, ptr %25, i32 0, i32 0
  %27 = load ptr, ptr %26, align 8, !tbaa !19
  %28 = load ptr, ptr %4, align 8, !tbaa !32
  %29 = icmp ne ptr %27, %28
  br i1 %29, label %30, label %86

30:                                               ; preds = %23
  br label %31

31:                                               ; preds = %30
  %32 = load ptr, ptr %4, align 8, !tbaa !32
  %33 = getelementptr inbounds nuw %struct.hpdata_s, ptr %32, i32 0, i32 15
  %34 = getelementptr inbounds nuw %struct.anon.4, ptr %33, i32 0, i32 0
  %35 = load ptr, ptr %34, align 8, !tbaa !45
  %36 = getelementptr inbounds nuw %struct.hpdata_s, ptr %35, i32 0, i32 15
  %37 = getelementptr inbounds nuw %struct.anon.4, ptr %36, i32 0, i32 1
  %38 = load ptr, ptr %37, align 8, !tbaa !46
  %39 = load ptr, ptr %4, align 8, !tbaa !32
  %40 = getelementptr inbounds nuw %struct.hpdata_s, ptr %39, i32 0, i32 15
  %41 = getelementptr inbounds nuw %struct.anon.4, ptr %40, i32 0, i32 1
  %42 = load ptr, ptr %41, align 8, !tbaa !46
  %43 = getelementptr inbounds nuw %struct.hpdata_s, ptr %42, i32 0, i32 15
  %44 = getelementptr inbounds nuw %struct.anon.4, ptr %43, i32 0, i32 0
  store ptr %38, ptr %44, align 8, !tbaa !45
  %45 = load ptr, ptr %4, align 8, !tbaa !32
  %46 = getelementptr inbounds nuw %struct.hpdata_s, ptr %45, i32 0, i32 15
  %47 = getelementptr inbounds nuw %struct.anon.4, ptr %46, i32 0, i32 1
  %48 = load ptr, ptr %47, align 8, !tbaa !46
  %49 = load ptr, ptr %4, align 8, !tbaa !32
  %50 = getelementptr inbounds nuw %struct.hpdata_s, ptr %49, i32 0, i32 15
  %51 = getelementptr inbounds nuw %struct.anon.4, ptr %50, i32 0, i32 0
  %52 = load ptr, ptr %51, align 8, !tbaa !45
  %53 = getelementptr inbounds nuw %struct.hpdata_s, ptr %52, i32 0, i32 15
  %54 = getelementptr inbounds nuw %struct.anon.4, ptr %53, i32 0, i32 1
  store ptr %48, ptr %54, align 8, !tbaa !46
  %55 = load ptr, ptr %4, align 8, !tbaa !32
  %56 = getelementptr inbounds nuw %struct.hpdata_s, ptr %55, i32 0, i32 15
  %57 = getelementptr inbounds nuw %struct.anon.4, ptr %56, i32 0, i32 1
  %58 = load ptr, ptr %57, align 8, !tbaa !46
  %59 = getelementptr inbounds nuw %struct.hpdata_s, ptr %58, i32 0, i32 15
  %60 = getelementptr inbounds nuw %struct.anon.4, ptr %59, i32 0, i32 0
  %61 = load ptr, ptr %60, align 8, !tbaa !45
  %62 = load ptr, ptr %4, align 8, !tbaa !32
  %63 = getelementptr inbounds nuw %struct.hpdata_s, ptr %62, i32 0, i32 15
  %64 = getelementptr inbounds nuw %struct.anon.4, ptr %63, i32 0, i32 1
  store ptr %61, ptr %64, align 8, !tbaa !46
  %65 = load ptr, ptr %4, align 8, !tbaa !32
  %66 = getelementptr inbounds nuw %struct.hpdata_s, ptr %65, i32 0, i32 15
  %67 = getelementptr inbounds nuw %struct.anon.4, ptr %66, i32 0, i32 0
  %68 = load ptr, ptr %67, align 8, !tbaa !45
  %69 = load ptr, ptr %4, align 8, !tbaa !32
  %70 = getelementptr inbounds nuw %struct.hpdata_s, ptr %69, i32 0, i32 15
  %71 = getelementptr inbounds nuw %struct.anon.4, ptr %70, i32 0, i32 0
  %72 = load ptr, ptr %71, align 8, !tbaa !45
  %73 = getelementptr inbounds nuw %struct.hpdata_s, ptr %72, i32 0, i32 15
  %74 = getelementptr inbounds nuw %struct.anon.4, ptr %73, i32 0, i32 1
  %75 = load ptr, ptr %74, align 8, !tbaa !46
  %76 = getelementptr inbounds nuw %struct.hpdata_s, ptr %75, i32 0, i32 15
  %77 = getelementptr inbounds nuw %struct.anon.4, ptr %76, i32 0, i32 0
  store ptr %68, ptr %77, align 8, !tbaa !45
  %78 = load ptr, ptr %4, align 8, !tbaa !32
  %79 = load ptr, ptr %4, align 8, !tbaa !32
  %80 = getelementptr inbounds nuw %struct.hpdata_s, ptr %79, i32 0, i32 15
  %81 = getelementptr inbounds nuw %struct.anon.4, ptr %80, i32 0, i32 1
  %82 = load ptr, ptr %81, align 8, !tbaa !46
  %83 = getelementptr inbounds nuw %struct.hpdata_s, ptr %82, i32 0, i32 15
  %84 = getelementptr inbounds nuw %struct.anon.4, ptr %83, i32 0, i32 0
  store ptr %78, ptr %84, align 8, !tbaa !45
  br label %85

85:                                               ; preds = %31
  br label %92

86:                                               ; preds = %23
  br label %87

87:                                               ; preds = %86
  %88 = load ptr, ptr %3, align 8, !tbaa !18
  %89 = getelementptr inbounds nuw %struct.hpdata_hugify_list_t, ptr %88, i32 0, i32 0
  %90 = getelementptr inbounds nuw %struct.anon.1, ptr %89, i32 0, i32 0
  store ptr null, ptr %90, align 8, !tbaa !19
  br label %91

91:                                               ; preds = %87
  br label %92

92:                                               ; preds = %91, %85
  br label %93

93:                                               ; preds = %92
  ret void
}

; Function Attrs: inlinehint nounwind uwtable
define internal void @hpdata_in_psset_hugify_container_set(ptr noundef %0, i1 noundef zeroext %1) #3 {
  %3 = alloca ptr, align 8
  %4 = alloca i8, align 1
  store ptr %0, ptr %3, align 8, !tbaa !32
  %5 = zext i1 %1 to i8
  store i8 %5, ptr %4, align 1, !tbaa !33
  br label %6

6:                                                ; preds = %2
  br label %7

7:                                                ; preds = %6
  %8 = load i8, ptr %4, align 1, !tbaa !33, !range !35, !noundef !36
  %9 = trunc i8 %8 to i1
  %10 = load ptr, ptr %3, align 8, !tbaa !32
  %11 = getelementptr inbounds nuw %struct.hpdata_s, ptr %10, i32 0, i32 8
  %12 = zext i1 %9 to i8
  store i8 %12, ptr %11, align 8, !tbaa !44
  ret void
}

; Function Attrs: inlinehint nounwind uwtable
define internal zeroext i1 @hpdata_in_psset_hugify_container_get(ptr noundef %0) #3 {
  %2 = alloca ptr, align 8
  store ptr %0, ptr %2, align 8, !tbaa !32
  %3 = load ptr, ptr %2, align 8, !tbaa !32
  %4 = getelementptr inbounds nuw %struct.hpdata_s, ptr %3, i32 0, i32 8
  %5 = load i8, ptr %4, align 8, !tbaa !44, !range !35, !noundef !36
  %6 = trunc i8 %5 to i1
  ret i1 %6
}

; Function Attrs: inlinehint nounwind uwtable
define internal zeroext i1 @hpdata_in_psset_alloc_container_get(ptr noundef %0) #3 {
  %2 = alloca ptr, align 8
  store ptr %0, ptr %2, align 8, !tbaa !32
  %3 = load ptr, ptr %2, align 8, !tbaa !32
  %4 = getelementptr inbounds nuw %struct.hpdata_s, ptr %3, i32 0, i32 4
  %5 = load i8, ptr %4, align 2, !tbaa !41, !range !35, !noundef !36
  %6 = trunc i8 %5 to i1
  ret i1 %6
}

; Function Attrs: inlinehint nounwind uwtable
define internal void @hpdata_in_psset_set(ptr noundef %0, i1 noundef zeroext %1) #3 {
  %3 = alloca ptr, align 8
  %4 = alloca i8, align 1
  store ptr %0, ptr %3, align 8, !tbaa !32
  %5 = zext i1 %1 to i8
  store i8 %5, ptr %4, align 1, !tbaa !33
  br label %6

6:                                                ; preds = %2
  br label %7

7:                                                ; preds = %6
  %8 = load i8, ptr %4, align 1, !tbaa !33, !range !35, !noundef !36
  %9 = trunc i8 %8 to i1
  %10 = load ptr, ptr %3, align 8, !tbaa !32
  %11 = getelementptr inbounds nuw %struct.hpdata_s, ptr %10, i32 0, i32 12
  %12 = zext i1 %9 to i8
  store i8 %12, ptr %11, align 4, !tbaa !47
  ret void
}

; Function Attrs: nounwind uwtable
define hidden void @je_psset_remove(ptr noundef %0, ptr noundef %1) #0 {
  %3 = alloca ptr, align 8
  %4 = alloca ptr, align 8
  store ptr %0, ptr %3, align 8, !tbaa !4
  store ptr %1, ptr %4, align 8, !tbaa !32
  %5 = load ptr, ptr %4, align 8, !tbaa !32
  call void @hpdata_in_psset_set(ptr noundef %5, i1 noundef zeroext false)
  %6 = load ptr, ptr %3, align 8, !tbaa !4
  %7 = load ptr, ptr %4, align 8, !tbaa !32
  call void @psset_stats_remove(ptr noundef %6, ptr noundef %7)
  %8 = load ptr, ptr %4, align 8, !tbaa !32
  %9 = call zeroext i1 @hpdata_in_psset_alloc_container_get(ptr noundef %8)
  br i1 %9, label %10, label %13

10:                                               ; preds = %2
  %11 = load ptr, ptr %3, align 8, !tbaa !4
  %12 = load ptr, ptr %4, align 8, !tbaa !32
  call void @psset_alloc_container_remove(ptr noundef %11, ptr noundef %12)
  br label %13

13:                                               ; preds = %10, %2
  %14 = load ptr, ptr %3, align 8, !tbaa !4
  %15 = load ptr, ptr %4, align 8, !tbaa !32
  call void @psset_maybe_remove_purge_list(ptr noundef %14, ptr noundef %15)
  %16 = load ptr, ptr %4, align 8, !tbaa !32
  %17 = call zeroext i1 @hpdata_in_psset_hugify_container_get(ptr noundef %16)
  br i1 %17, label %18, label %23

18:                                               ; preds = %13
  %19 = load ptr, ptr %4, align 8, !tbaa !32
  call void @hpdata_in_psset_hugify_container_set(ptr noundef %19, i1 noundef zeroext false)
  %20 = load ptr, ptr %3, align 8, !tbaa !4
  %21 = getelementptr inbounds nuw %struct.psset_s, ptr %20, i32 0, i32 7
  %22 = load ptr, ptr %4, align 8, !tbaa !32
  call void @hpdata_hugify_list_remove(ptr noundef %21, ptr noundef %22)
  br label %23

23:                                               ; preds = %18, %13
  ret void
}